; Function Attrs: nounwind sspstrong uwtable
define internal range(i64 1, 128) i64 @time_min(i64 noundef %0) #1 {
  %2 = tail call ptr @rb_check_typeddata(i64 noundef %0, ptr noundef nonnull @time_data_type) #21
  %3 = getelementptr inbounds nuw i8, ptr %2, i64 40
  %4 = load i64, ptr %3, align 8
  %5 = and i64 %4, 61572651155456
  %.not.i = icmp eq i64 %5, 26388279066624
  br i1 %.not.i, label %6, label %get_timeval.exit

6:                                                ; preds = %1
  %7 = load i64, ptr @rb_eTypeError, align 8, !tbaa !11
  %8 = tail call i64 @rb_obj_class(i64 noundef %0) #21
  tail call void (i64, ptr, ...) @rb_raise(i64 noundef %7, ptr noundef nonnull @.str.92, i64 noundef %8) #22
  unreachable

get_timeval.exit:                                 ; preds = %1
  %9 = and i64 %4, 70368744177664
  %10 = icmp eq i64 %9, 0
  br i1 %10, label %11, label %time_get_tm.exit

11:                                               ; preds = %get_timeval.exit
  %12 = lshr i64 %4, 43
  %13 = trunc nuw nsw i64 %12 to i32
  %14 = and i32 %13, 7
  switch i32 %14, label %19 [
    i32 1, label %15
    i32 2, label %17
  ]

15:                                               ; preds = %11
  %16 = tail call i64 @time_gmtime(i64 noundef %0)
  br label %time_get_tm.exit

17:                                               ; preds = %11
  %18 = tail call fastcc i64 @time_fixoff(i64 noundef %0)
  br label %time_get_tm.exit

19:                                               ; preds = %11
  %20 = tail call fastcc i64 @time_localtime(i64 noundef %0)
  br label %time_get_tm.exit

time_get_tm.exit:                                 ; preds = %19, %17, %15, %get_timeval.exit
  %21 = load i64, ptr %3, align 8
  %22 = lshr i64 %21, 22
  %23 = and i64 %22, 126
  %24 = or disjoint i64 %23, 1
  ret i64 %24
}